target datalayout = "e-m:e-p270:32:32-p271:32:32-p272:64:64-i64:64-i128:128-f80:128-n8:16:32:64-S128"
target triple = "x86_64-pc-linux-gnu"

%struct.Zio = type { i64, ptr, ptr, ptr, ptr }

; Function Attrs: nounwind uwtable
define hidden i32 @luaZ_fill(ptr noundef %0) #0 {
  %2 = alloca i32, align 4
  %3 = alloca ptr, align 8
  %4 = alloca i64, align 8
  %5 = alloca ptr, align 8
  %6 = alloca ptr, align 8
  %7 = alloca i32, align 4
  store ptr %0, ptr %3, align 8, !tbaa !4
  call void @llvm.lifetime.start.p0(i64 8, ptr %4) #3
  call void @llvm.lifetime.start.p0(i64 8, ptr %5) #3
  %8 = load ptr, ptr %3, align 8, !tbaa !4
  %9 = getelementptr inbounds nuw %struct.Zio, ptr %8, i32 0, i32 4
  %10 = load ptr, ptr %9, align 8, !tbaa !9
  store ptr %10, ptr %5, align 8, !tbaa !14
  call void @llvm.lifetime.start.p0(i64 8, ptr %6) #3
  %11 = load ptr, ptr %3, align 8, !tbaa !4
  %12 = getelementptr inbounds nuw %struct.Zio, ptr %11, i32 0, i32 2
  %13 = load ptr, ptr %12, align 8, !tbaa !15
  %14 = load ptr, ptr %5, align 8, !tbaa !14
  %15 = load ptr, ptr %3, align 8, !tbaa !4
  %16 = getelementptr inbounds nuw %struct.Zio, ptr %15, i32 0, i32 3
  %17 = load ptr, ptr %16, align 8, !tbaa !16
  %18 = call ptr %13(ptr noundef %14, ptr noundef %17, ptr noundef %4)
  store ptr %18, ptr %6, align 8, !tbaa !17
  %19 = load ptr, ptr %6, align 8, !tbaa !17
  %20 = icmp eq ptr %19, null
  br i1 %20, label %24, label %21

21:                                               ; preds = %1
  %22 = load i64, ptr %4, align 8, !tbaa !18
  %23 = icmp eq i64 %22, 0
  br i1 %23, label %24, label %25

24:                                               ; preds = %21, %1
  store i32 -1, ptr %2, align 4
  store i32 1, ptr %7, align 4
  br label %39

25:                                               ; preds = %21
  %26 = load i64, ptr %4, align 8, !tbaa !18
  %27 = sub i64 %26, 1
  %28 = load ptr, ptr %3, align 8, !tbaa !4
  %29 = getelementptr inbounds nuw %struct.Zio, ptr %28, i32 0, i32 0
  store i64 %27, ptr %29, align 8, !tbaa !19
  %30 = load ptr, ptr %6, align 8, !tbaa !17
  %31 = load ptr, ptr %3, align 8, !tbaa !4
  %32 = getelementptr inbounds nuw %struct.Zio, ptr %31, i32 0, i32 1
  store ptr %30, ptr %32, align 8, !tbaa !20
  %33 = load ptr, ptr %3, align 8, !tbaa !4
  %34 = getelementptr inbounds nuw %struct.Zio, ptr %33, i32 0, i32 1
  %35 = load ptr, ptr %34, align 8, !tbaa !20
  %36 = getelementptr inbounds nuw i8, ptr %35, i32 1
  store ptr %36, ptr %34, align 8, !tbaa !20
  %37 = load i8, ptr %35, align 1, !tbaa !21
  %38 = zext i8 %37 to i32
  store i32 %38, ptr %2, align 4
  store i32 1, ptr %7, align 4
  br label %39

39:                                               ; preds = %25, %24
  call void @llvm.lifetime.end.p0(i64 8, ptr %6) #3
  call void @llvm.lifetime.end.p0(i64 8, ptr %5) #3
  call void @llvm.lifetime.end.p0(i64 8, ptr %4) #3
  %40 = load i32, ptr %2, align 4
  ret i32 %40
}

; Function Attrs: nocallback nofree nosync nounwind willreturn memory(argmem: readwrite)
declare void @llvm.lifetime.start.p0(i64 immarg, ptr captures(none)) #1

; Function Attrs: nocallback nofree nosync nounwind willreturn memory(argmem: readwrite)
declare void @llvm.lifetime.end.p0(i64 immarg, ptr captures(none)) #1

; Function Attrs: nounwind uwtable
define hidden void @luaZ_init(ptr noundef %0, ptr noundef %1, ptr noundef %2, ptr noundef %3) #0 {
  %5 = alloca ptr, align 8
  %6 = alloca ptr, align 8
  %7 = alloca ptr, align 8
  %8 = alloca ptr, align 8
  store ptr %0, ptr %5, align 8, !tbaa !14
  store ptr %1, ptr %6, align 8, !tbaa !4
  store ptr %2, ptr %7, align 8, !tbaa !22
  store ptr %3, ptr %8, align 8, !tbaa !22
  %9 = load ptr, ptr %5, align 8, !tbaa !14
  %10 = load ptr, ptr %6, align 8, !tbaa !4
  %11 = getelementptr inbounds nuw %struct.Zio, ptr %10, i32 0, i32 4
  store ptr %9, ptr %11, align 8, !tbaa !9
  %12 = load ptr, ptr %7, align 8, !tbaa !22
  %13 = load ptr, ptr %6, align 8, !tbaa !4
  %14 = getelementptr inbounds nuw %struct.Zio, ptr %13, i32 0, i32 2
  store ptr %12, ptr %14, align 8, !tbaa !15
  %15 = load ptr, ptr %8, align 8, !tbaa !22
  %16 = load ptr, ptr %6, align 8, !tbaa !4
  %17 = getelementptr inbounds nuw %struct.Zio, ptr %16, i32 0, i32 3
  store ptr %15, ptr %17, align 8, !tbaa !16
  %18 = load ptr, ptr %6, align 8, !tbaa !4
  %19 = getelementptr inbounds nuw %struct.Zio, ptr %18, i32 0, i32 0
  store i64 0, ptr %19, align 8, !tbaa !19
  %20 = load ptr, ptr %6, align 8, !tbaa !4
  %21 = getelementptr inbounds nuw %struct.Zio, ptr %20, i32 0, i32 1
  store ptr null, ptr %21, align 8, !tbaa !20
  ret void
}

; Function Attrs: nounwind uwtable
define hidden i64 @luaZ_read(ptr noundef %0, ptr noundef %1, i64 noundef %2) #0 {
  %4 = alloca i64, align 8
  %5 = alloca ptr, align 8
  %6 = alloca ptr, align 8
  %7 = alloca i64, align 8
  %8 = alloca i64, align 8
  %9 = alloca i32, align 4
  store ptr %0, ptr %5, align 8, !tbaa !4
  store ptr %1, ptr %6, align 8, !tbaa !22
  store i64 %2, ptr %7, align 8, !tbaa !18
  br label %10

10:                                               ; preds = %56, %3
  %11 = load i64, ptr %7, align 8, !tbaa !18
  %12 = icmp ne i64 %11, 0
  br i1 %12, label %13, label %57

13:                                               ; preds = %10
  call void @llvm.lifetime.start.p0(i64 8, ptr %8) #3
  %14 = load ptr, ptr %5, align 8, !tbaa !4
  %15 = call i32 @checkbuffer(ptr noundef %14)
  %16 = icmp ne i32 %15, 0
  br i1 %16, label %19, label %17

17:                                               ; preds = %13
  %18 = load i64, ptr %7, align 8, !tbaa !18
  store i64 %18, ptr %4, align 8
  store i32 1, ptr %9, align 4
  br label %54

19:                                               ; preds = %13
  %20 = load i64, ptr %7, align 8, !tbaa !18
  %21 = load ptr, ptr %5, align 8, !tbaa !4
  %22 = getelementptr inbounds nuw %struct.Zio, ptr %21, i32 0, i32 0
  %23 = load i64, ptr %22, align 8, !tbaa !19
  %24 = icmp ule i64 %20, %23
  br i1 %24, label %25, label %27

25:                                               ; preds = %19
  %26 = load i64, ptr %7, align 8, !tbaa !18
  br label %31

27:                                               ; preds = %19
  %28 = load ptr, ptr %5, align 8, !tbaa !4
  %29 = getelementptr inbounds nuw %struct.Zio, ptr %28, i32 0, i32 0
  %30 = load i64, ptr %29, align 8, !tbaa !19
  br label %31

31:                                               ; preds = %27, %25
  %32 = phi i64 [ %26, %25 ], [ %30, %27 ]
  store i64 %32, ptr %8, align 8, !tbaa !18
  %33 = load ptr, ptr %6, align 8, !tbaa !22
  %34 = load ptr, ptr %5, align 8, !tbaa !4
  %35 = getelementptr inbounds nuw %struct.Zio, ptr %34, i32 0, i32 1
  %36 = load ptr, ptr %35, align 8, !tbaa !20
  %37 = load i64, ptr %8, align 8, !tbaa !18
  call void @llvm.memcpy.p0.p0.i64(ptr align 1 %33, ptr align 1 %36, i64 %37, i1 false)
  %38 = load i64, ptr %8, align 8, !tbaa !18
  %39 = load ptr, ptr %5, align 8, !tbaa !4
  %40 = getelementptr inbounds nuw %struct.Zio, ptr %39, i32 0, i32 0
  %41 = load i64, ptr %40, align 8, !tbaa !19
  %42 = sub i64 %41, %38
  store i64 %42, ptr %40, align 8, !tbaa !19
  %43 = load i64, ptr %8, align 8, !tbaa !18
  %44 = load ptr, ptr %5, align 8, !tbaa !4
  %45 = getelementptr inbounds nuw %struct.Zio, ptr %44, i32 0, i32 1
  %46 = load ptr, ptr %45, align 8, !tbaa !20
  %47 = getelementptr inbounds nuw i8, ptr %46, i64 %43
  store ptr %47, ptr %45, align 8, !tbaa !20
  %48 = load ptr, ptr %6, align 8, !tbaa !22
  %49 = load i64, ptr %8, align 8, !tbaa !18
  %50 = getelementptr inbounds nuw i8, ptr %48, i64 %49
  store ptr %50, ptr %6, align 8, !tbaa !22
  %51 = load i64, ptr %8, align 8, !tbaa !18
  %52 = load i64, ptr %7, align 8, !tbaa !18
  %53 = sub i64 %52, %51
  store i64 %53, ptr %7, align 8, !tbaa !18
  store i32 0, ptr %9, align 4
  br label %54

54:                                               ; preds = %31, %17
  call void @llvm.lifetime.end.p0(i64 8, ptr %8) #3
  %55 = load i32, ptr %9, align 4
  switch i32 %55, label %60 [
    i32 0, label %56
    i32 1, label %58
  ]

56:                                               ; preds = %54
  br label %10

57:                                               ; preds = %10
  store i64 0, ptr %4, align 8
  br label %58

58:                                               ; preds = %57, %54
  %59 = load i64, ptr %4, align 8
  ret i64 %59

60:                                               ; preds = %54
  unreachable
}

; Function Attrs: nounwind uwtable
define internal i32 @checkbuffer(ptr noundef %0) #0 {
  %2 = alloca i32, align 4
  %3 = alloca ptr, align 8
  store ptr %0, ptr %3, align 8, !tbaa !4
  %4 = load ptr, ptr %3, align 8, !tbaa !4
  %5 = getelementptr inbounds nuw %struct.Zio, ptr %4, i32 0, i32 0
  %6 = load i64, ptr %5, align 8, !tbaa !19
  %7 = icmp eq i64 %6, 0
  br i1 %7, label %8, label %23

8:                                                ; preds = %1
  %9 = load ptr, ptr %3, align 8, !tbaa !4
  %10 = call i32 @luaZ_fill(ptr noundef %9)
  %11 = icmp eq i32 %10, -1
  br i1 %11, label %12, label %13

12:                                               ; preds = %8
  store i32 0, ptr %2, align 4
  br label %24

13:                                               ; preds = %8
  %14 = load ptr, ptr %3, align 8, !tbaa !4
  %15 = getelementptr inbounds nuw %struct.Zio, ptr %14, i32 0, i32 0
  %16 = load i64, ptr %15, align 8, !tbaa !19
  %17 = add i64 %16, 1
  store i64 %17, ptr %15, align 8, !tbaa !19
  %18 = load ptr, ptr %3, align 8, !tbaa !4
  %19 = getelementptr inbounds nuw %struct.Zio, ptr %18, i32 0, i32 1
  %20 = load ptr, ptr %19, align 8, !tbaa !20
  %21 = getelementptr inbounds i8, ptr %20, i32 -1
  store ptr %21, ptr %19, align 8, !tbaa !20
  br label %22

22:                                               ; preds = %13
  br label %23

23:                                               ; preds = %22, %1
  store i32 1, ptr %2, align 4
  br label %24

24:                                               ; preds = %23, %12
  %25 = load i32, ptr %2, align 4
  ret i32 %25
}

; Function Attrs: nocallback nofree nounwind willreturn memory(argmem: readwrite)
declare void @llvm.memcpy.p0.p0.i64(ptr noalias writeonly captures(none), ptr noalias readonly captures(none), i64, i1 immarg) #2

; Function Attrs: nounwind uwtable
define hidden ptr @luaZ_getaddr(ptr noundef %0, i64 noundef %1) #0 {
  %3 = alloca ptr, align 8
  %4 = alloca ptr, align 8
  %5 = alloca i64, align 8
  %6 = alloca ptr, align 8
  %7 = alloca i32, align 4
  store ptr %0, ptr %4, align 8, !tbaa !4
  store i64 %1, ptr %5, align 8, !tbaa !18
  call void @llvm.lifetime.start.p0(i64 8, ptr %6) #3
  %8 = load ptr, ptr %4, align 8, !tbaa !4
  %9 = call i32 @checkbuffer(ptr noundef %8)
  %10 = icmp ne i32 %9, 0
  br i1 %10, label %12, label %11

11:                                               ; preds = %2
  store ptr null, ptr %3, align 8
  store i32 1, ptr %7, align 4
  br label %34

12:                                               ; preds = %2
  %13 = load ptr, ptr %4, align 8, !tbaa !4
  %14 = getelementptr inbounds nuw %struct.Zio, ptr %13, i32 0, i32 0
  %15 = load i64, ptr %14, align 8, !tbaa !19
  %16 = load i64, ptr %5, align 8, !tbaa !18
  %17 = icmp ult i64 %15, %16
  br i1 %17, label %18, label %19

18:                                               ; preds = %12
  store ptr null, ptr %3, align 8
  store i32 1, ptr %7, align 4
  br label %34

19:                                               ; preds = %12
  %20 = load ptr, ptr %4, align 8, !tbaa !4
  %21 = getelementptr inbounds nuw %struct.Zio, ptr %20, i32 0, i32 1
  %22 = load ptr, ptr %21, align 8, !tbaa !20
  store ptr %22, ptr %6, align 8, !tbaa !22
  %23 = load i64, ptr %5, align 8, !tbaa !18
  %24 = load ptr, ptr %4, align 8, !tbaa !4
  %25 = getelementptr inbounds nuw %struct.Zio, ptr %24, i32 0, i32 0
  %26 = load i64, ptr %25, align 8, !tbaa !19
  %27 = sub i64 %26, %23
  store i64 %27, ptr %25, align 8, !tbaa !19
  %28 = load i64, ptr %5, align 8, !tbaa !18
  %29 = load ptr, ptr %4, align 8, !tbaa !4
  %30 = getelementptr inbounds nuw %struct.Zio, ptr %29, i32 0, i32 1
  %31 = load ptr, ptr %30, align 8, !tbaa !20
  %32 = getelementptr inbounds nuw i8, ptr %31, i64 %28
  store ptr %32, ptr %30, align 8, !tbaa !20
  %33 = load ptr, ptr %6, align 8, !tbaa !22
  store ptr %33, ptr %3, align 8
  store i32 1, ptr %7, align 4
  br label %34

34:                                               ; preds = %19, %18, %11
  call void @llvm.lifetime.end.p0(i64 8, ptr %6) #3
  %35 = load ptr, ptr %3, align 8
  ret ptr %35
}


!llvm.module.flags = !{!0, !1, !2, !3}

!0 = !{i32 1, !"wchar_size", i32 4}
!1 = !{i32 8, !"PIC Level", i32 2}
!2 = !{i32 7, !"PIE Level", i32 2}
!3 = !{i32 7, !"uwtable", i32 2}
!4 = !{!5, !5, i64 0}
!5 = !{!"p1 _ZTS3Zio", !6, i64 0}
!6 = !{!"any pointer", !7, i64 0}
!7 = !{!"omnipotent char", !8, i64 0}
!8 = !{!"Simple C/C++ TBAA"}
!9 = !{!10, !13, i64 32}
!10 = !{!"Zio", !11, i64 0, !12, i64 8, !6, i64 16, !6, i64 24, !13, i64 32}
!11 = !{!"long", !7, i64 0}
!12 = !{!"p1 omnipotent char", !6, i64 0}
!13 = !{!"p1 _ZTS9lua_State", !6, i64 0}
!14 = !{!13, !13, i64 0}
!15 = !{!10, !6, i64 16}
!16 = !{!10, !6, i64 24}
!17 = !{!12, !12, i64 0}
!18 = !{!11, !11, i64 0}
!19 = !{!10, !11, i64 0}
!20 = !{!10, !12, i64 8}
!21 = !{!7, !7, i64 0}
!22 = !{!6, !6, i64 0}
